Certificate:
    Data:
        Version: 3 (0x2)
        Serial Number: 2 (0x2)
        Signature Algorithm: sha256WithRSAEncryption
        Issuer: O=Test Org, CN=Test Org rauc CA Development
        Validity
            Not Before: Jan  1 00:00:00 1970 GMT
            Not After : Dec 31 23:59:59 9999 GMT
        Subject: O=Test Org, CN=Test Org Development-1
        Subject Public Key Info:
            Public Key Algorithm: rsaEncryption
                RSA Public-Key: (2048 bit)
                Modulus:
                    00:c6:78:76:9a:68:0a:14:82:14:f4:0b:1c:f1:9a:
                    cc:a2:31:bf:3c:f2:c2:32:4f:8a:c4:60:b8:f6:85:
                    42:03:d0:d2:a8:db:26:e1:0f:cc:e9:90:ee:18:b8:
                    17:3a:c6:0d:19:32:45:d9:ec:f6:eb:4d:ac:1b:7a:
                    f0:e2:9d:df:b3:6b:9e:84:bc:3f:58:2d:2d:4d:6e:
                    89:1d:95:f5:e7:08:71:02:90:0f:cd:a6:ed:b3:08:
                    d9:94:a4:2f:45:4c:13:94:e4:eb:df:7b:7e:d7:61:
                    b2:0c:92:a3:75:6c:9e:f5:04:66:01:99:14:24:db:
                    21:b9:95:40:29:77:af:6a:97:d5:38:ee:a4:44:a6:
                    6a:a3:a8:21:22:bb:24:7f:c4:68:cd:74:2c:e0:22:
                    5e:2b:42:41:ee:13:f5:0b:bc:6c:76:5b:71:e8:f0:
                    1a:76:31:bb:ee:f8:ec:0b:a6:c9:41:4c:2d:ed:86:
                    36:a4:68:77:f9:6e:2d:be:60:d6:3a:29:d3:a5:5e:
                    89:76:01:d7:ad:bf:5c:0f:e6:eb:e1:a6:bd:c9:9c:
                    60:77:5a:a5:38:ed:6e:16:5f:f7:8f:e7:f0:91:36:
                    64:b4:f9:fb:91:ee:f7:a4:fe:b2:62:ff:7d:83:51:
                    d4:9d:13:6d:49:b5:2e:68:63:e3:95:3a:7d:71:14:
                    26:ad
                Exponent: 65537 (0x10001)
        X509v3 extensions:
            X509v3 Subject Key Identifier: 
                0E:96:05:77:5C:1F:1D:49:37:4D:46:DC:3D:5B:3C:AF:06:16:2C:08
            X509v3 Authority Key Identifier: 
                keyid:F1:11:5D:36:D3:10:8F:E8:55:BF:D5:E2:00:B5:07:66:C7:9B:EF:69
                DirName:/O=Test Org/CN=Test Org rauc CA Development
                serial:01

            X509v3 Basic Constraints: 
                CA:FALSE
    Signature Algorithm: sha256WithRSAEncryption
         ba:16:16:21:18:6c:c4:64:0b:19:ec:0f:68:f4:53:bc:e9:29:
         ba:30:03:c2:2b:57:33:13:10:eb:53:d9:02:b0:dd:c1:7b:73:
         8f:a9:13:d0:22:4c:10:33:9b:bc:25:4d:7d:2a:aa:b8:11:c5:
         b7:a8:71:3c:3d:58:1e:d9:b5:a4:b1:d1:87:58:9a:d0:8b:a9:
         eb:8c:4d:34:86:cf:d2:3f:87:fe:76:ae:1a:3e:c7:bd:af:94:
         05:d9:19:3f:ab:3c:3d:f2:a5:2e:92:92:0d:04:94:09:d9:ad:
         92:56:86:20:f9:a2:a3:18:9e:12:a2:38:b3:7a:3e:f7:3b:8c:
         62:36:7d:d2:2b:80:a3:cd:b5:7b:d8:7e:f3:da:db:9c:90:11:
         6e:d5:d8:87:f0:5c:ec:44:7b:9a:e4:2e:ff:95:aa:7a:75:c6:
         66:2b:06:22:4d:9b:2a:90:09:76:50:cb:85:9f:79:f4:0c:56:
         c7:44:3c:7f:2b:ef:53:15:5a:e7:31:8b:20:9c:b7:cd:4e:5d:
         07:05:80:30:54:67:b6:36:90:2c:a3:c0:b1:59:d0:4b:54:0a:
         d5:55:78:56:25:64:0c:d6:28:f9:bd:fa:e8:35:d1:d5:f5:e4:
         53:0b:94:35:8c:f2:0b:0d:d6:67:b4:28:c5:f0:4c:3c:f9:7b:
         bb:94:1b:6e
-----BEGIN CERTIFICATE-----
MIIDfTCCAmWgAwIBAgIBAjANBgkqhkiG9w0BAQsFADA6MREwDwYDVQQKDAhUZXN0
IE9yZzElMCMGA1UEAwwcVGVzdCBPcmcgcmF1YyBDQSBEZXZlbG9wbWVudDAgFw03
MDAxMDEwMDAwMDBaGA85OTk5MTIzMTIzNTk1OVowNDERMA8GA1UECgwIVGVzdCBP
cmcxHzAdBgNVBAMMFlRlc3QgT3JnIERldmVsb3BtZW50LTEwggEiMA0GCSqGSIb3
DQEBAQUAA4IBDwAwggEKAoIBAQDGeHaaaAoUghT0CxzxmsyiMb888sIyT4rEYLj2
hUID0NKo2ybhD8zpkO4YuBc6xg0ZMkXZ7PbrTawbevDind+za56EvD9YLS1Nbokd
lfXnCHECkA/Npu2zCNmUpC9FTBOU5Ovfe37XYbIMkqN1bJ71BGYBmRQk2yG5lUAp
d69ql9U47qREpmqjqCEiuyR/xGjNdCzgIl4rQkHuE/ULvGx2W3Ho8Bp2Mbvu+OwL
pslBTC3thjakaHf5bi2+YNY6KdOlXol2Adetv1wP5uvhpr3JnGB3WqU47W4WX/eP
5/CRNmS0+fuR7vek/rJi/32DUdSdE21JtS5oY+OVOn1xFCatAgMBAAGjgZEwgY4w
HQYDVR0OBBYEFA6WBXdcHx1JN01G3D1bPK8GFiwIMGIGA1UdIwRbMFmAFPERXTbT
EI/oVb/V4gC1B2bHm+9poT6kPDA6MREwDwYDVQQKDAhUZXN0IE9yZzElMCMGA1UE
AwwcVGVzdCBPcmcgcmF1YyBDQSBEZXZlbG9wbWVudIIBATAJBgNVHRMEAjAAMA0G
CSqGSIb3DQEBCwUAA4IBAQC6FhYhGGzEZAsZ7A9o9FO86Sm6MAPCK1czExDrU9kC
sN3Be3OPqRPQIkwQM5u8JU19Kqq4EcW3qHE8PVge2bWksdGHWJrQi6nrjE00hs/S
P4f+dq4aPse9r5QF2Rk/qzw98qUukpINBJQJ2a2SVoYg+aKjGJ4Sojizej73O4xi
Nn3SK4CjzbV72H7z2tuckBFu1diH8FzsRHua5C7/lap6dcZmKwYiTZsqkAl2UMuF
n3n0DFbHRDx/K+9TFVrnMYsgnLfNTl0HBYAwVGe2NpAso8CxWdBLVArVVXhWJWQM
1ij5vfroNdHV9eRTC5Q1jPILDdZntCjF8Ew8+Xu7lBtu
-----END CERTIFICATE-----
