Certificate:
    Data:
        Version: 3 (0x2)
        Serial Number: 1 (0x1)
        Signature Algorithm: sha256WithRSAEncryption
        Issuer: O=Test Org, CN=Test Org rauc CA Development
        Validity
            Not Before: Jan  1 00:00:00 1970 GMT
            Not After : Dec 31 23:59:59 9999 GMT
        Subject: O=Test Org, CN=Test Org rauc CA Development
        Subject Public Key Info:
            Public Key Algorithm: rsaEncryption
                RSA Public-Key: (2048 bit)
                Modulus:
                    00:bd:ad:03:2a:0b:e7:78:b6:f5:5c:1a:30:56:d7:
                    9d:27:32:16:ca:a1:f9:00:26:d2:6c:87:dd:04:45:
                    bc:e0:17:55:72:68:48:df:bb:83:34:b5:73:13:81:
                    2e:45:13:46:a8:43:32:92:47:12:21:d8:73:b1:28:
                    0c:bc:89:2e:e0:1f:c8:ae:17:97:cd:fa:51:c0:9e:
                    79:31:c2:3e:b5:3a:5e:64:5b:61:0e:c4:50:d8:b1:
                    c6:da:22:8e:b1:f9:8a:8a:7e:ad:f6:65:b5:23:2d:
                    a5:58:19:70:a0:96:36:ff:0a:27:c6:81:4d:44:e2:
                    27:23:4c:42:f7:42:fe:45:ba:37:da:61:fe:fb:ad:
                    51:31:5a:14:91:8c:99:9d:88:a2:0a:4d:c3:26:f3:
                    e7:9e:61:58:1d:b9:0d:d9:9a:86:8e:f0:17:d9:fe:
                    e6:1a:3d:2a:25:9b:a3:3c:aa:8f:70:78:b0:75:73:
                    3c:7b:c4:1f:a7:a5:80:34:f6:c8:f3:44:7d:cc:93:
                    7e:7e:06:bc:b7:dd:cc:e2:41:6c:2c:7c:0e:d7:f4:
                    7a:41:54:ab:cc:4e:5f:a4:84:af:da:ab:bf:f9:38:
                    79:79:62:a5:00:66:35:2a:64:05:56:4a:01:db:97:
                    39:dd:c8:0f:4e:ff:cd:8d:66:d7:06:59:9a:c5:bb:
                    98:21
                Exponent: 65537 (0x10001)
        X509v3 extensions:
            X509v3 Subject Key Identifier: 
                F1:11:5D:36:D3:10:8F:E8:55:BF:D5:E2:00:B5:07:66:C7:9B:EF:69
            X509v3 Authority Key Identifier: 
                keyid:F1:11:5D:36:D3:10:8F:E8:55:BF:D5:E2:00:B5:07:66:C7:9B:EF:69
                DirName:/O=Test Org/CN=Test Org rauc CA Development
                serial:01

            X509v3 Basic Constraints: 
                CA:TRUE
    Signature Algorithm: sha256WithRSAEncryption
         99:b8:0e:bc:4a:eb:4a:3a:d9:7e:56:a9:ff:09:a5:4c:5c:46:
         e7:93:da:8f:e1:57:1f:4d:7f:bb:e1:32:3a:de:fa:f7:22:56:
         38:9b:05:50:0d:d6:42:3d:48:c6:cc:6f:a2:d0:3f:21:85:98:
         76:fc:a6:06:18:25:20:7a:86:9f:5b:41:40:2d:ae:cb:b6:8f:
         d5:ea:c4:04:5c:3f:17:4e:15:d1:10:0d:23:e5:4e:0d:f5:52:
         c9:36:10:af:3a:3a:db:7d:4e:a2:75:ec:87:32:da:2e:5f:22:
         c1:3e:b5:db:7e:d0:1e:a4:7b:79:ce:72:86:3b:dc:36:8d:ee:
         30:c7:e3:69:f3:64:b2:98:28:2e:d3:11:35:51:1f:56:0d:c4:
         45:51:13:51:71:b6:b5:cc:ed:51:e3:fc:1d:c8:e2:85:d2:8c:
         c3:b7:df:53:fd:05:8e:c1:f8:a7:67:d5:cd:69:70:51:fe:dd:
         f0:ab:74:69:dd:b1:bd:9d:d8:98:49:06:39:2b:36:f1:bc:3f:
         c6:20:5d:68:58:0a:6a:a8:c5:6d:a2:74:94:e0:1a:d8:b4:06:
         ed:ef:e9:07:d4:0c:69:54:3b:10:30:30:17:49:c3:ae:dd:b8:
         08:6b:33:80:a8:ab:34:e7:6f:f6:00:82:a0:15:e1:05:1c:72:
         2e:dc:75:e6
-----BEGIN CERTIFICATE-----
MIIDhjCCAm6gAwIBAgIBATANBgkqhkiG9w0BAQsFADA6MREwDwYDVQQKDAhUZXN0
IE9yZzElMCMGA1UEAwwcVGVzdCBPcmcgcmF1YyBDQSBEZXZlbG9wbWVudDAgFw03
MDAxMDEwMDAwMDBaGA85OTk5MTIzMTIzNTk1OVowOjERMA8GA1UECgwIVGVzdCBP
cmcxJTAjBgNVBAMMHFRlc3QgT3JnIHJhdWMgQ0EgRGV2ZWxvcG1lbnQwggEiMA0G
CSqGSIb3DQEBAQUAA4IBDwAwggEKAoIBAQC9rQMqC+d4tvVcGjBW150nMhbKofkA
JtJsh90ERbzgF1VyaEjfu4M0tXMTgS5FE0aoQzKSRxIh2HOxKAy8iS7gH8iuF5fN
+lHAnnkxwj61Ol5kW2EOxFDYscbaIo6x+YqKfq32ZbUjLaVYGXCgljb/CifGgU1E
4icjTEL3Qv5FujfaYf77rVExWhSRjJmdiKIKTcMm8+eeYVgduQ3ZmoaO8BfZ/uYa
PSolm6M8qo9weLB1czx7xB+npYA09sjzRH3Mk35+Bry33cziQWwsfA7X9HpBVKvM
Tl+khK/aq7/5OHl5YqUAZjUqZAVWSgHblzndyA9O/82NZtcGWZrFu5ghAgMBAAGj
gZQwgZEwHQYDVR0OBBYEFPERXTbTEI/oVb/V4gC1B2bHm+9pMGIGA1UdIwRbMFmA
FPERXTbTEI/oVb/V4gC1B2bHm+9poT6kPDA6MREwDwYDVQQKDAhUZXN0IE9yZzEl
MCMGA1UEAwwcVGVzdCBPcmcgcmF1YyBDQSBEZXZlbG9wbWVudIIBATAMBgNVHRME
BTADAQH/MA0GCSqGSIb3DQEBCwUAA4IBAQCZuA68SutKOtl+Vqn/CaVMXEbnk9qP
4VcfTX+74TI63vr3IlY4mwVQDdZCPUjGzG+i0D8hhZh2/KYGGCUgeoafW0FALa7L
to/V6sQEXD8XThXREA0j5U4N9VLJNhCvOjrbfU6ideyHMtouXyLBPrXbftAepHt5
znKGO9w2je4wx+Np82SymCgu0xE1UR9WDcRFURNRcba1zO1R4/wdyOKF0ozDt99T
/QWOwfinZ9XNaXBR/t3wq3Rp3bG9ndiYSQY5KzbxvD/GIF1oWApqqMVtonSU4BrY
tAbt7+kH1AxpVDsQMDAXScOu3bgIazOAqKs052/2AIKgFeEFHHIu3HXm
-----END CERTIFICATE-----
